target datalayout = "e-m:e-p270:32:32-p271:32:32-p272:64:64-i64:64-i128:128-f80:128-n8:16:32:64-S128"
target triple = "x86_64-pc-linux-gnu"

; Function Attrs: alwaysinline nounwind willreturn memory(none) uwtable
define internal zeroext i8 @av_clip_uint8_c(i32 noundef %0) #6 {
  %2 = alloca i8, align 1
  %3 = alloca i32, align 4
  store i32 %0, ptr %3, align 4, !tbaa !30
  %4 = load i32, ptr %3, align 4, !tbaa !30
  %5 = and i32 %4, -256
  %6 = icmp ne i32 %5, 0
  br i1 %6, label %7, label %12

7:                                                ; preds = %1
  %8 = load i32, ptr %3, align 4, !tbaa !30
  %9 = xor i32 %8, -1
  %10 = ashr i32 %9, 31
  %11 = trunc i32 %10 to i8
  store i8 %11, ptr %2, align 1
  br label %15

12:                                               ; preds = %1
  %13 = load i32, ptr %3, align 4, !tbaa !30
  %14 = trunc i32 %13 to i8
  store i8 %14, ptr %2, align 1
  br label %15

15:                                               ; preds = %12, %7
  %16 = load i8, ptr %2, align 1
  ret i8 %16
}

; Function Attrs: alwaysinline nounwind uwtable
define internal void @yuv2422_2_c_template(ptr noundef %0, ptr noundef %1, ptr noundef %2, ptr noundef %3, ptr noundef %4, ptr noundef %5, i32 noundef %6, i32 noundef %7, i32 noundef %8, i32 noundef %9, i32 noundef %10) #3 {
  %12 = alloca ptr, align 8
  %13 = alloca ptr, align 8
  %14 = alloca ptr, align 8
  %15 = alloca ptr, align 8
  %16 = alloca ptr, align 8
  %17 = alloca ptr, align 8
  %18 = alloca i32, align 4
  %19 = alloca i32, align 4
  %20 = alloca i32, align 4
  %21 = alloca i32, align 4
  %22 = alloca i32, align 4
  %23 = alloca ptr, align 8
  %24 = alloca ptr, align 8
  %25 = alloca ptr, align 8
  %26 = alloca ptr, align 8
  %27 = alloca ptr, align 8
  %28 = alloca ptr, align 8
  %29 = alloca i32, align 4
  %30 = alloca i32, align 4
  %31 = alloca i32, align 4
  %32 = alloca i32, align 4
  %33 = alloca i32, align 4
  %34 = alloca i32, align 4
  %35 = alloca i32, align 4
  store ptr %0, ptr %12, align 8, !tbaa !4
  store ptr %1, ptr %13, align 8, !tbaa !47
  store ptr %2, ptr %14, align 8, !tbaa !47
  store ptr %3, ptr %15, align 8, !tbaa !47
  store ptr %4, ptr %16, align 8, !tbaa !47
  store ptr %5, ptr %17, align 8, !tbaa !46
  store i32 %6, ptr %18, align 4, !tbaa !30
  store i32 %7, ptr %19, align 4, !tbaa !30
  store i32 %8, ptr %20, align 4, !tbaa !30
  store i32 %9, ptr %21, align 4, !tbaa !30
  store i32 %10, ptr %22, align 4, !tbaa !30
  call void @llvm.lifetime.start.p0(i64 8, ptr %23) #8
  %36 = load ptr, ptr %13, align 8, !tbaa !47
  %37 = getelementptr inbounds ptr, ptr %36, i64 0
  %38 = load ptr, ptr %37, align 8, !tbaa !45
  store ptr %38, ptr %23, align 8, !tbaa !45
  call void @llvm.lifetime.start.p0(i64 8, ptr %24) #8
  %39 = load ptr, ptr %13, align 8, !tbaa !47
  %40 = getelementptr inbounds ptr, ptr %39, i64 1
  %41 = load ptr, ptr %40, align 8, !tbaa !45
  store ptr %41, ptr %24, align 8, !tbaa !45
  call void @llvm.lifetime.start.p0(i64 8, ptr %25) #8
  %42 = load ptr, ptr %14, align 8, !tbaa !47
  %43 = getelementptr inbounds ptr, ptr %42, i64 0
  %44 = load ptr, ptr %43, align 8, !tbaa !45
  store ptr %44, ptr %25, align 8, !tbaa !45
  call void @llvm.lifetime.start.p0(i64 8, ptr %26) #8
  %45 = load ptr, ptr %14, align 8, !tbaa !47
  %46 = getelementptr inbounds ptr, ptr %45, i64 1
  %47 = load ptr, ptr %46, align 8, !tbaa !45
  store ptr %47, ptr %26, align 8, !tbaa !45
  call void @llvm.lifetime.start.p0(i64 8, ptr %27) #8
  %48 = load ptr, ptr %15, align 8, !tbaa !47
  %49 = getelementptr inbounds ptr, ptr %48, i64 0
  %50 = load ptr, ptr %49, align 8, !tbaa !45
  store ptr %50, ptr %27, align 8, !tbaa !45
  call void @llvm.lifetime.start.p0(i64 8, ptr %28) #8
  %51 = load ptr, ptr %15, align 8, !tbaa !47
  %52 = getelementptr inbounds ptr, ptr %51, i64 1
  %53 = load ptr, ptr %52, align 8, !tbaa !45
  store ptr %53, ptr %28, align 8, !tbaa !45
  call void @llvm.lifetime.start.p0(i64 4, ptr %29) #8
  %54 = load i32, ptr %19, align 4, !tbaa !30
  %55 = sub nsw i32 4096, %54
  store i32 %55, ptr %29, align 4, !tbaa !30
  call void @llvm.lifetime.start.p0(i64 4, ptr %30) #8
  %56 = load i32, ptr %20, align 4, !tbaa !30
  %57 = sub nsw i32 4096, %56
  store i32 %57, ptr %30, align 4, !tbaa !30
  call void @llvm.lifetime.start.p0(i64 4, ptr %31) #8
  store i32 0, ptr %31, align 4, !tbaa !30
  br label %58

58:                                               ; preds = %272, %11
  %59 = load i32, ptr %31, align 4, !tbaa !30
  %60 = load i32, ptr %18, align 4, !tbaa !30
  %61 = add nsw i32 %60, 1
  %62 = ashr i32 %61, 1
  %63 = icmp slt i32 %59, %62
  br i1 %63, label %64, label %275

64:                                               ; preds = %58
  call void @llvm.lifetime.start.p0(i64 4, ptr %32) #8
  %65 = load ptr, ptr %23, align 8, !tbaa !45
  %66 = load i32, ptr %31, align 4, !tbaa !30
  %67 = mul nsw i32 %66, 2
  %68 = sext i32 %67 to i64
  %69 = getelementptr inbounds i16, ptr %65, i64 %68
  %70 = load i16, ptr %69, align 2, !tbaa !49
  %71 = sext i16 %70 to i32
  %72 = load i32, ptr %29, align 4, !tbaa !30
  %73 = mul nsw i32 %71, %72
  %74 = load ptr, ptr %24, align 8, !tbaa !45
  %75 = load i32, ptr %31, align 4, !tbaa !30
  %76 = mul nsw i32 %75, 2
  %77 = sext i32 %76 to i64
  %78 = getelementptr inbounds i16, ptr %74, i64 %77
  %79 = load i16, ptr %78, align 2, !tbaa !49
  %80 = sext i16 %79 to i32
  %81 = load i32, ptr %19, align 4, !tbaa !30
  %82 = mul nsw i32 %80, %81
  %83 = add nsw i32 %73, %82
  %84 = ashr i32 %83, 19
  store i32 %84, ptr %32, align 4, !tbaa !30
  call void @llvm.lifetime.start.p0(i64 4, ptr %33) #8
  %85 = load ptr, ptr %23, align 8, !tbaa !45
  %86 = load i32, ptr %31, align 4, !tbaa !30
  %87 = mul nsw i32 %86, 2
  %88 = add nsw i32 %87, 1
  %89 = sext i32 %88 to i64
  %90 = getelementptr inbounds i16, ptr %85, i64 %89
  %91 = load i16, ptr %90, align 2, !tbaa !49
  %92 = sext i16 %91 to i32
  %93 = load i32, ptr %29, align 4, !tbaa !30
  %94 = mul nsw i32 %92, %93
  %95 = load ptr, ptr %24, align 8, !tbaa !45
  %96 = load i32, ptr %31, align 4, !tbaa !30
  %97 = mul nsw i32 %96, 2
  %98 = add nsw i32 %97, 1
  %99 = sext i32 %98 to i64
  %100 = getelementptr inbounds i16, ptr %95, i64 %99
  %101 = load i16, ptr %100, align 2, !tbaa !49
  %102 = sext i16 %101 to i32
  %103 = load i32, ptr %19, align 4, !tbaa !30
  %104 = mul nsw i32 %102, %103
  %105 = add nsw i32 %94, %104
  %106 = ashr i32 %105, 19
  store i32 %106, ptr %33, align 4, !tbaa !30
  call void @llvm.lifetime.start.p0(i64 4, ptr %34) #8
  %107 = load ptr, ptr %25, align 8, !tbaa !45
  %108 = load i32, ptr %31, align 4, !tbaa !30
  %109 = sext i32 %108 to i64
  %110 = getelementptr inbounds i16, ptr %107, i64 %109
  %111 = load i16, ptr %110, align 2, !tbaa !49
  %112 = sext i16 %111 to i32
  %113 = load i32, ptr %30, align 4, !tbaa !30
  %114 = mul nsw i32 %112, %113
  %115 = load ptr, ptr %26, align 8, !tbaa !45
  %116 = load i32, ptr %31, align 4, !tbaa !30
  %117 = sext i32 %116 to i64
  %118 = getelementptr inbounds i16, ptr %115, i64 %117
  %119 = load i16, ptr %118, align 2, !tbaa !49
  %120 = sext i16 %119 to i32
  %121 = load i32, ptr %20, align 4, !tbaa !30
  %122 = mul nsw i32 %120, %121
  %123 = add nsw i32 %114, %122
  %124 = ashr i32 %123, 19
  store i32 %124, ptr %34, align 4, !tbaa !30
  call void @llvm.lifetime.start.p0(i64 4, ptr %35) #8
  %125 = load ptr, ptr %27, align 8, !tbaa !45
  %126 = load i32, ptr %31, align 4, !tbaa !30
  %127 = sext i32 %126 to i64
  %128 = getelementptr inbounds i16, ptr %125, i64 %127
  %129 = load i16, ptr %128, align 2, !tbaa !49
  %130 = sext i16 %129 to i32
  %131 = load i32, ptr %30, align 4, !tbaa !30
  %132 = mul nsw i32 %130, %131
  %133 = load ptr, ptr %28, align 8, !tbaa !45
  %134 = load i32, ptr %31, align 4, !tbaa !30
  %135 = sext i32 %134 to i64
  %136 = getelementptr inbounds i16, ptr %133, i64 %135
  %137 = load i16, ptr %136, align 2, !tbaa !49
  %138 = sext i16 %137 to i32
  %139 = load i32, ptr %20, align 4, !tbaa !30
  %140 = mul nsw i32 %138, %139
  %141 = add nsw i32 %132, %140
  %142 = ashr i32 %141, 19
  store i32 %142, ptr %35, align 4, !tbaa !30
  %143 = load i32, ptr %32, align 4, !tbaa !30
  %144 = load i32, ptr %33, align 4, !tbaa !30
  %145 = or i32 %143, %144
  %146 = load i32, ptr %34, align 4, !tbaa !30
  %147 = or i32 %145, %146
  %148 = load i32, ptr %35, align 4, !tbaa !30
  %149 = or i32 %147, %148
  %150 = and i32 %149, 256
  %151 = icmp ne i32 %150, 0
  br i1 %151, label %152, label %165

152:                                              ; preds = %64
  %153 = load i32, ptr %32, align 4, !tbaa !30
  %154 = call zeroext i8 @av_clip_uint8_c(i32 noundef %153) #10
  %155 = zext i8 %154 to i32
  store i32 %155, ptr %32, align 4, !tbaa !30
  %156 = load i32, ptr %33, align 4, !tbaa !30
  %157 = call zeroext i8 @av_clip_uint8_c(i32 noundef %156) #10
  %158 = zext i8 %157 to i32
  store i32 %158, ptr %33, align 4, !tbaa !30
  %159 = load i32, ptr %34, align 4, !tbaa !30
  %160 = call zeroext i8 @av_clip_uint8_c(i32 noundef %159) #10
  %161 = zext i8 %160 to i32
  store i32 %161, ptr %34, align 4, !tbaa !30
  %162 = load i32, ptr %35, align 4, !tbaa !30
  %163 = call zeroext i8 @av_clip_uint8_c(i32 noundef %162) #10
  %164 = zext i8 %163 to i32
  store i32 %164, ptr %35, align 4, !tbaa !30
  br label %165

165:                                              ; preds = %152, %64
  %166 = load i32, ptr %22, align 4, !tbaa !30
  %167 = icmp eq i32 %166, 1
  br i1 %167, label %168, label %201

168:                                              ; preds = %165
  %169 = load i32, ptr %32, align 4, !tbaa !30
  %170 = trunc i32 %169 to i8
  %171 = load ptr, ptr %17, align 8, !tbaa !46
  %172 = load i32, ptr %31, align 4, !tbaa !30
  %173 = mul nsw i32 %172, 4
  %174 = add nsw i32 %173, 0
  %175 = sext i32 %174 to i64
  %176 = getelementptr inbounds i8, ptr %171, i64 %175
  store i8 %170, ptr %176, align 1, !tbaa !51
  %177 = load i32, ptr %34, align 4, !tbaa !30
  %178 = trunc i32 %177 to i8
  %179 = load ptr, ptr %17, align 8, !tbaa !46
  %180 = load i32, ptr %31, align 4, !tbaa !30
  %181 = mul nsw i32 %180, 4
  %182 = add nsw i32 %181, 1
  %183 = sext i32 %182 to i64
  %184 = getelementptr inbounds i8, ptr %179, i64 %183
  store i8 %178, ptr %184, align 1, !tbaa !51
  %185 = load i32, ptr %33, align 4, !tbaa !30
  %186 = trunc i32 %185 to i8
  %187 = load ptr, ptr %17, align 8, !tbaa !46
  %188 = load i32, ptr %31, align 4, !tbaa !30
  %189 = mul nsw i32 %188, 4
  %190 = add nsw i32 %189, 2
  %191 = sext i32 %190 to i64
  %192 = getelementptr inbounds i8, ptr %187, i64 %191
  store i8 %186, ptr %192, align 1, !tbaa !51
  %193 = load i32, ptr %35, align 4, !tbaa !30
  %194 = trunc i32 %193 to i8
  %195 = load ptr, ptr %17, align 8, !tbaa !46
  %196 = load i32, ptr %31, align 4, !tbaa !30
  %197 = mul nsw i32 %196, 4
  %198 = add nsw i32 %197, 3
  %199 = sext i32 %198 to i64
  %200 = getelementptr inbounds i8, ptr %195, i64 %199
  store i8 %194, ptr %200, align 1, !tbaa !51
  br label %271

201:                                              ; preds = %165
  %202 = load i32, ptr %22, align 4, !tbaa !30
  %203 = icmp eq i32 %202, 108
  br i1 %203, label %204, label %237

204:                                              ; preds = %201
  %205 = load i32, ptr %32, align 4, !tbaa !30
  %206 = trunc i32 %205 to i8
  %207 = load ptr, ptr %17, align 8, !tbaa !46
  %208 = load i32, ptr %31, align 4, !tbaa !30
  %209 = mul nsw i32 %208, 4
  %210 = add nsw i32 %209, 0
  %211 = sext i32 %210 to i64
  %212 = getelementptr inbounds i8, ptr %207, i64 %211
  store i8 %206, ptr %212, align 1, !tbaa !51
  %213 = load i32, ptr %35, align 4, !tbaa !30
  %214 = trunc i32 %213 to i8
  %215 = load ptr, ptr %17, align 8, !tbaa !46
  %216 = load i32, ptr %31, align 4, !tbaa !30
  %217 = mul nsw i32 %216, 4
  %218 = add nsw i32 %217, 1
  %219 = sext i32 %218 to i64
  %220 = getelementptr inbounds i8, ptr %215, i64 %219
  store i8 %214, ptr %220, align 1, !tbaa !51
  %221 = load i32, ptr %33, align 4, !tbaa !30
  %222 = trunc i32 %221 to i8
  %223 = load ptr, ptr %17, align 8, !tbaa !46
  %224 = load i32, ptr %31, align 4, !tbaa !30
  %225 = mul nsw i32 %224, 4
  %226 = add nsw i32 %225, 2
  %227 = sext i32 %226 to i64
  %228 = getelementptr inbounds i8, ptr %223, i64 %227
  store i8 %222, ptr %228, align 1, !tbaa !51
  %229 = load i32, ptr %34, align 4, !tbaa !30
  %230 = trunc i32 %229 to i8
  %231 = load ptr, ptr %17, align 8, !tbaa !46
  %232 = load i32, ptr %31, align 4, !tbaa !30
  %233 = mul nsw i32 %232, 4
  %234 = add nsw i32 %233, 3
  %235 = sext i32 %234 to i64
  %236 = getelementptr inbounds i8, ptr %231, i64 %235
  store i8 %230, ptr %236, align 1, !tbaa !51
  br label %270

237:                                              ; preds = %201
  %238 = load i32, ptr %34, align 4, !tbaa !30
  %239 = trunc i32 %238 to i8
  %240 = load ptr, ptr %17, align 8, !tbaa !46
  %241 = load i32, ptr %31, align 4, !tbaa !30
  %242 = mul nsw i32 %241, 4
  %243 = add nsw i32 %242, 0
  %244 = sext i32 %243 to i64
  %245 = getelementptr inbounds i8, ptr %240, i64 %244
  store i8 %239, ptr %245, align 1, !tbaa !51
  %246 = load i32, ptr %32, align 4, !tbaa !30
  %247 = trunc i32 %246 to i8
  %248 = load ptr, ptr %17, align 8, !tbaa !46
  %249 = load i32, ptr %31, align 4, !tbaa !30
  %250 = mul nsw i32 %249, 4
  %251 = add nsw i32 %250, 1
  %252 = sext i32 %251 to i64
  %253 = getelementptr inbounds i8, ptr %248, i64 %252
  store i8 %247, ptr %253, align 1, !tbaa !51
  %254 = load i32, ptr %35, align 4, !tbaa !30
  %255 = trunc i32 %254 to i8
  %256 = load ptr, ptr %17, align 8, !tbaa !46
  %257 = load i32, ptr %31, align 4, !tbaa !30
  %258 = mul nsw i32 %257, 4
  %259 = add nsw i32 %258, 2
  %260 = sext i32 %259 to i64
  %261 = getelementptr inbounds i8, ptr %256, i64 %260
  store i8 %255, ptr %261, align 1, !tbaa !51
  %262 = load i32, ptr %33, align 4, !tbaa !30
  %263 = trunc i32 %262 to i8
  %264 = load ptr, ptr %17, align 8, !tbaa !46
  %265 = load i32, ptr %31, align 4, !tbaa !30
  %266 = mul nsw i32 %265, 4
  %267 = add nsw i32 %266, 3
  %268 = sext i32 %267 to i64
  %269 = getelementptr inbounds i8, ptr %264, i64 %268
  store i8 %263, ptr %269, align 1, !tbaa !51
  br label %270

270:                                              ; preds = %237, %204
  br label %271

271:                                              ; preds = %270, %168
  call void @llvm.lifetime.end.p0(i64 4, ptr %35) #8
  call void @llvm.lifetime.end.p0(i64 4, ptr %34) #8
  call void @llvm.lifetime.end.p0(i64 4, ptr %33) #8
  call void @llvm.lifetime.end.p0(i64 4, ptr %32) #8
  br label %272

272:                                              ; preds = %271
  %273 = load i32, ptr %31, align 4, !tbaa !30
  %274 = add nsw i32 %273, 1
  store i32 %274, ptr %31, align 4, !tbaa !30
  br label %58, !llvm.loop !167

275:                                              ; preds = %58
  call void @llvm.lifetime.end.p0(i64 4, ptr %31) #8
  call void @llvm.lifetime.end.p0(i64 4, ptr %30) #8
  call void @llvm.lifetime.end.p0(i64 4, ptr %29) #8
  call void @llvm.lifetime.end.p0(i64 8, ptr %28) #8
  call void @llvm.lifetime.end.p0(i64 8, ptr %27) #8
  call void @llvm.lifetime.end.p0(i64 8, ptr %26) #8
  call void @llvm.lifetime.end.p0(i64 8, ptr %25) #8
  call void @llvm.lifetime.end.p0(i64 8, ptr %24) #8
  call void @llvm.lifetime.end.p0(i64 8, ptr %23) #8
  ret void
}

; Function Attrs: nounwind uwtable
define internal void @yuv2uyvy422_2_c(ptr noundef %0, ptr noundef %1, ptr noundef %2, ptr noundef %3, ptr noundef %4, ptr noundef %5, i32 noundef %6, i32 noundef %7, i32 noundef %8, i32 noundef %9) #4 {
  %11 = alloca ptr, align 8
  %12 = alloca ptr, align 8
  %13 = alloca ptr, align 8
  %14 = alloca ptr, align 8
  %15 = alloca ptr, align 8
  %16 = alloca ptr, align 8
  %17 = alloca i32, align 4
  %18 = alloca i32, align 4
  %19 = alloca i32, align 4
  %20 = alloca i32, align 4
  store ptr %0, ptr %11, align 8, !tbaa !4
  store ptr %1, ptr %12, align 8, !tbaa !47
  store ptr %2, ptr %13, align 8, !tbaa !47
  store ptr %3, ptr %14, align 8, !tbaa !47
  store ptr %4, ptr %15, align 8, !tbaa !47
  store ptr %5, ptr %16, align 8, !tbaa !46
  store i32 %6, ptr %17, align 4, !tbaa !30
  store i32 %7, ptr %18, align 4, !tbaa !30
  store i32 %8, ptr %19, align 4, !tbaa !30
  store i32 %9, ptr %20, align 4, !tbaa !30
  %21 = load ptr, ptr %11, align 8, !tbaa !4
  %22 = load ptr, ptr %12, align 8, !tbaa !47
  %23 = load ptr, ptr %13, align 8, !tbaa !47
  %24 = load ptr, ptr %14, align 8, !tbaa !47
  %25 = load ptr, ptr %15, align 8, !tbaa !47
  %26 = load ptr, ptr %16, align 8, !tbaa !46
  %27 = load i32, ptr %17, align 4, !tbaa !30
  %28 = load i32, ptr %18, align 4, !tbaa !30
  %29 = load i32, ptr %19, align 4, !tbaa !30
  %30 = load i32, ptr %20, align 4, !tbaa !30
  call void @yuv2422_2_c_template(ptr noundef %21, ptr noundef %22, ptr noundef %23, ptr noundef %24, ptr noundef %25, ptr noundef %26, i32 noundef %27, i32 noundef %28, i32 noundef %29, i32 noundef %30, i32 noundef 15)
  ret void
}